; Function Attrs: mustprogress nounwind uwtable
define void @_ZN4LIEF3ELF7GnuHashC2EjjSt6vectorImSaImEES2_IjSaIjEES6_(ptr noundef nonnull align 8 dereferenceable(96) %0, i32 noundef %1, i32 noundef %2, ptr noundef captures(none) %3, ptr noundef captures(none) %4, ptr noundef captures(none) %5) unnamed_addr #0 align 2 {
  tail call void @_ZN4LIEF6ObjectC2Ev(ptr noundef nonnull align 8 dereferenceable(8) %0) #11
  store ptr getelementptr inbounds nuw inrange(-16, 40) (i8, ptr @_ZTVN4LIEF3ELF7GnuHashE, i64 16), ptr %0, align 8, !tbaa !3
  %7 = getelementptr inbounds nuw i8, ptr %0, i64 8
  store i32 %1, ptr %7, align 8, !tbaa !6
  %8 = getelementptr inbounds nuw i8, ptr %0, i64 12
  store i32 %2, ptr %8, align 4, !tbaa !23
  %9 = getelementptr inbounds nuw i8, ptr %0, i64 16
  %10 = load ptr, ptr %3, align 8, !tbaa !24
  store ptr %10, ptr %9, align 8, !tbaa !24
  %11 = getelementptr inbounds nuw i8, ptr %0, i64 24
  %12 = getelementptr inbounds nuw i8, ptr %3, i64 8
  %13 = load ptr, ptr %12, align 8, !tbaa !25
  store ptr %13, ptr %11, align 8, !tbaa !25
  %14 = getelementptr inbounds nuw i8, ptr %0, i64 32
  %15 = getelementptr inbounds nuw i8, ptr %3, i64 16
  %16 = load ptr, ptr %15, align 8, !tbaa !26
  store ptr %16, ptr %14, align 8, !tbaa !26
  tail call void @llvm.memset.p0.i64(ptr noundef nonnull align 8 dereferenceable(24) %3, i8 0, i64 24, i1 false)
  %17 = getelementptr inbounds nuw i8, ptr %0, i64 40
  %18 = load ptr, ptr %4, align 8, !tbaa !27
  store ptr %18, ptr %17, align 8, !tbaa !27
  %19 = getelementptr inbounds nuw i8, ptr %0, i64 48
  %20 = getelementptr inbounds nuw i8, ptr %4, i64 8
  %21 = load ptr, ptr %20, align 8, !tbaa !28
  store ptr %21, ptr %19, align 8, !tbaa !28
  %22 = getelementptr inbounds nuw i8, ptr %0, i64 56
  %23 = getelementptr inbounds nuw i8, ptr %4, i64 16
  %24 = load ptr, ptr %23, align 8, !tbaa !29
  store ptr %24, ptr %22, align 8, !tbaa !29
  tail call void @llvm.memset.p0.i64(ptr noundef nonnull align 8 dereferenceable(24) %4, i8 0, i64 24, i1 false)
  %25 = getelementptr inbounds nuw i8, ptr %0, i64 64
  %26 = load ptr, ptr %5, align 8, !tbaa !27
  store ptr %26, ptr %25, align 8, !tbaa !27
  %27 = getelementptr inbounds nuw i8, ptr %0, i64 72
  %28 = getelementptr inbounds nuw i8, ptr %5, i64 8
  %29 = load ptr, ptr %28, align 8, !tbaa !28
  store ptr %29, ptr %27, align 8, !tbaa !28
  %30 = getelementptr inbounds nuw i8, ptr %0, i64 80
  %31 = getelementptr inbounds nuw i8, ptr %5, i64 16
  %32 = load ptr, ptr %31, align 8, !tbaa !29
  store ptr %32, ptr %30, align 8, !tbaa !29
  tail call void @llvm.memset.p0.i64(ptr noundef nonnull align 8 dereferenceable(24) %5, i8 0, i64 24, i1 false)
  %33 = getelementptr inbounds nuw i8, ptr %0, i64 88
  store i64 0, ptr %33, align 8, !tbaa !30
  ret void
}